; Function Attrs: mustprogress uwtable
define void @_ZNK7Imf_3_415TiledOutputFile18dataWindowForLevelEii(ptr dead_on_unwind noalias writable sret(%"class.Imath_3_2::Box") align 4 %0, ptr noundef nonnull readonly align 8 captures(none) dereferenceable(25) %1, i32 noundef %2, i32 noundef %3) local_unnamed_addr #5 align 2 personality ptr @__gxx_personality_v0 {
  %5 = alloca %"class.std::__cxx11::basic_stringstream", align 8
  %6 = getelementptr inbounds nuw i8, ptr %1, i64 8
  %7 = load ptr, ptr %6, align 8, !tbaa !112
  %8 = getelementptr inbounds nuw i8, ptr %7, i64 64
  %9 = getelementptr inbounds nuw i8, ptr %7, i64 140
  %10 = load i32, ptr %9, align 4, !tbaa !135
  %11 = getelementptr inbounds nuw i8, ptr %7, i64 144
  %12 = load i32, ptr %11, align 8, !tbaa !137
  %13 = getelementptr inbounds nuw i8, ptr %7, i64 148
  %14 = load i32, ptr %13, align 4, !tbaa !139
  %15 = getelementptr inbounds nuw i8, ptr %7, i64 152
  %16 = load i32, ptr %15, align 8, !tbaa !141
  invoke void @_ZN7Imf_3_418dataWindowForLevelERKNS_15TileDescriptionEiiiiii(ptr dead_on_unwind writable sret(%"class.Imath_3_2::Box") align 4 %0, ptr noundef nonnull align 4 dereferenceable(16) %8, i32 noundef %10, i32 noundef %12, i32 noundef %14, i32 noundef %16, i32 noundef %2, i32 noundef %3)
          to label %17 unwind label %18

17:                                               ; preds = %4
  ret void

18:                                               ; preds = %4
  %19 = landingpad { ptr, i32 }
          catch ptr @_ZTIN7Iex_3_47BaseExcE
  %20 = extractvalue { ptr, i32 } %19, 1
  %21 = tail call i32 @llvm.eh.typeid.for.p0(ptr nonnull @_ZTIN7Iex_3_47BaseExcE) #25
  %22 = icmp eq i32 %20, %21
  br i1 %22, label %23, label %53

23:                                               ; preds = %18
  %24 = extractvalue { ptr, i32 } %19, 0
  %25 = tail call ptr @__cxa_begin_catch(ptr %24) #25
  call void @llvm.lifetime.start.p0(i64 392, ptr nonnull %5) #25
  invoke void @_ZNSt7__cxx1118basic_stringstreamIcSt11char_traitsIcESaIcEEC1Ev(ptr noundef nonnull align 8 dereferenceable(128) %5)
          to label %26 unwind label %45

26:                                               ; preds = %23
  %27 = getelementptr inbounds nuw i8, ptr %5, i64 16
  %28 = invoke noundef nonnull align 8 dereferenceable(8) ptr @_ZSt16__ostream_insertIcSt11char_traitsIcEERSt13basic_ostreamIT_T0_ES6_PKS3_l(ptr noundef nonnull align 8 dereferenceable(8) %27, ptr noundef nonnull @.str.42, i64 noundef 50)
          to label %_ZStlsISt11char_traitsIcEERSt13basic_ostreamIcT_ES5_PKc.exit unwind label %47

_ZStlsISt11char_traitsIcEERSt13basic_ostreamIcT_ES5_PKc.exit: ; preds = %26
  %29 = getelementptr inbounds nuw i8, ptr %1, i64 16
  %30 = load ptr, ptr %29, align 8, !tbaa !117
  %31 = getelementptr inbounds nuw i8, ptr %30, i64 40
  %32 = load ptr, ptr %31, align 8, !tbaa !119
  %33 = invoke noundef ptr @_ZNK7Imf_3_47OStream8fileNameEv(ptr noundef nonnull align 8 dereferenceable(40) %32)
          to label %_ZNK7Imf_3_415TiledOutputFile8fileNameEv.exit unwind label %47

_ZNK7Imf_3_415TiledOutputFile8fileNameEv.exit:    ; preds = %_ZStlsISt11char_traitsIcEERSt13basic_ostreamIcT_ES5_PKc.exit
  %34 = invoke noundef nonnull align 8 dereferenceable(8) ptr @_ZStlsISt11char_traitsIcEERSt13basic_ostreamIcT_ES5_PKc(ptr noundef nonnull align 8 dereferenceable(8) %27, ptr noundef %33)
          to label %35 unwind label %47

35:                                               ; preds = %_ZNK7Imf_3_415TiledOutputFile8fileNameEv.exit
  %36 = invoke noundef nonnull align 8 dereferenceable(8) ptr @_ZSt16__ostream_insertIcSt11char_traitsIcEERSt13basic_ostreamIT_T0_ES6_PKS3_l(ptr noundef nonnull align 8 dereferenceable(8) %34, ptr noundef nonnull @.str.9, i64 noundef 3)
          to label %_ZStlsISt11char_traitsIcEERSt13basic_ostreamIcT_ES5_PKc.exit15 unwind label %47

_ZStlsISt11char_traitsIcEERSt13basic_ostreamIcT_ES5_PKc.exit15: ; preds = %35
  %37 = load ptr, ptr %25, align 8, !tbaa !105
  %38 = getelementptr inbounds nuw i8, ptr %37, i64 16
  %39 = load ptr, ptr %38, align 8
  %40 = call noundef ptr %39(ptr noundef nonnull align 8 dereferenceable(72) %25) #25
  %41 = invoke noundef nonnull align 8 dereferenceable(8) ptr @_ZStlsISt11char_traitsIcEERSt13basic_ostreamIcT_ES5_PKc(ptr noundef nonnull align 8 dereferenceable(8) %34, ptr noundef %40)
          to label %42 unwind label %47

42:                                               ; preds = %_ZStlsISt11char_traitsIcEERSt13basic_ostreamIcT_ES5_PKc.exit15
  %43 = invoke noundef nonnull align 8 dereferenceable(72) ptr @_ZN7Iex_3_47BaseExc6assignERNSt7__cxx1118basic_stringstreamIcSt11char_traitsIcESaIcEEE(ptr noundef nonnull align 8 dereferenceable(72) %25, ptr noundef nonnull align 8 dereferenceable(128) %5)
          to label %44 unwind label %47

44:                                               ; preds = %42
  call void @_ZNSt7__cxx1118basic_stringstreamIcSt11char_traitsIcESaIcEED1Ev(ptr noundef nonnull align 8 dereferenceable(128) %5) #25
  call void @llvm.lifetime.end.p0(i64 392, ptr nonnull %5) #25
  invoke void @__cxa_rethrow() #30
          to label %57 unwind label %50

45:                                               ; preds = %23
  %46 = landingpad { ptr, i32 }
          cleanup
  br label %49

47:                                               ; preds = %35, %_ZStlsISt11char_traitsIcEERSt13basic_ostreamIcT_ES5_PKc.exit, %26, %42, %_ZStlsISt11char_traitsIcEERSt13basic_ostreamIcT_ES5_PKc.exit15, %_ZNK7Imf_3_415TiledOutputFile8fileNameEv.exit
  %48 = landingpad { ptr, i32 }
          cleanup
  call void @_ZNSt7__cxx1118basic_stringstreamIcSt11char_traitsIcESaIcEED1Ev(ptr noundef nonnull align 8 dereferenceable(128) %5) #25
  br label %49

49:                                               ; preds = %47, %45
  %.pn = phi { ptr, i32 } [ %48, %47 ], [ %46, %45 ]
  call void @llvm.lifetime.end.p0(i64 392, ptr nonnull %5) #25
  br label %52

50:                                               ; preds = %44
  %51 = landingpad { ptr, i32 }
          cleanup
  br label %52

52:                                               ; preds = %50, %49
  %.pn13 = phi { ptr, i32 } [ %51, %50 ], [ %.pn, %49 ]
  invoke void @__cxa_end_catch()
          to label %53 unwind label %54

53:                                               ; preds = %52, %18
  %.merged = phi { ptr, i32 } [ %19, %18 ], [ %.pn13, %52 ]
  resume { ptr, i32 } %.merged

54:                                               ; preds = %52
  %55 = landingpad { ptr, i32 }
          catch ptr null
  %56 = extractvalue { ptr, i32 } %55, 0
  call void @__clang_call_terminate(ptr %56) #28
  unreachable

57:                                               ; preds = %44
  unreachable
}